target datalayout = "e-m:e-p270:32:32-p271:32:32-p272:64:64-i64:64-i128:128-f80:128-n8:16:32:64-S128"
target triple = "x86_64-pc-linux-gnu"

%struct.expert_field = type { i32, i32 }
%struct._packet_info = type { ptr, ptr, i32, i32, %struct.nstime_t, %struct.nstime_t, %struct.nstime_t, i8, ptr, ptr, ptr, ptr, %struct._address, %struct._address, %struct._address, %struct._address, %struct._address, %struct._address, i32, ptr, i8, [3 x i8], %struct.anon, i32, i32, i32, i32, ptr, i8, ptr, ptr, i16, i16, i32, i32, i16, i32, i32, ptr, ptr, ptr, i8, i8, i16, i16, i16, i32, i16, i16, ptr, ptr, ptr, ptr, ptr, i32, i32 }
%struct.nstime_t = type { i64, i32 }
%struct._address = type { i32, i32, ptr, ptr }
%struct.anon = type { i8, [3 x i8] }

@hf_uftp_status = internal global i32 0, align 4
@hf_uftp_status_func = internal global i32 0, align 4
@hf_uftp_status_reserved = internal global i32 0, align 4
@hf_uftp_status_file_id = internal global i32 0, align 4
@hf_uftp_status_pass = internal global i32 0, align 4
@hf_uftp_status_seq = internal global i32 0, align 4
@hf_uftp_status_section = internal global i32 0, align 4
@hf_uftp_status_nak_count = internal global i32 0, align 4
@hf_uftp_status_naks = internal global i32 0, align 4
@ett_uftp_status = internal global i32 0, align 4
@ei_uftp_length_invalid = internal global %struct.expert_field zeroinitializer, align 4
@.str.289 = private unnamed_addr constant [19 x i8] c"Invalid length: %d\00", align 1
@.str.296 = private unnamed_addr constant [34 x i8] c":%04X  Pass=%d  Section=%d Seq=%d\00", align 1

; Function Attrs: null_pointer_is_valid sspstrong uwtable
define internal void @dissect_uftp_status(ptr noundef %0, ptr noundef %1, ptr noundef %2) #0 {
  %4 = alloca ptr, align 8
  %5 = alloca ptr, align 8
  %6 = alloca ptr, align 8
  %7 = alloca ptr, align 8
  %8 = alloca ptr, align 8
  %9 = alloca i32, align 4
  %10 = alloca i8, align 1
  %11 = alloca i8, align 1
  %12 = alloca i16, align 2
  %13 = alloca i16, align 2
  %14 = alloca i32, align 4
  %15 = alloca i32, align 4
  store ptr %0, ptr %4, align 8
  store ptr %1, ptr %5, align 8
  store ptr %2, ptr %6, align 8
  call void @llvm.lifetime.start.p0(i64 8, ptr %7) #3
  store ptr null, ptr %7, align 8
  call void @llvm.lifetime.start.p0(i64 8, ptr %8) #3
  store ptr null, ptr %8, align 8
  call void @llvm.lifetime.start.p0(i64 4, ptr %9) #3
  store i32 0, ptr %9, align 4
  call void @llvm.lifetime.start.p0(i64 1, ptr %10) #3
  call void @llvm.lifetime.start.p0(i64 1, ptr %11) #3
  call void @llvm.lifetime.start.p0(i64 2, ptr %12) #3
  call void @llvm.lifetime.start.p0(i64 2, ptr %13) #3
  call void @llvm.lifetime.start.p0(i64 4, ptr %14) #3
  %16 = load ptr, ptr %4, align 8
  %17 = call i32 @tvb_reported_length(ptr noundef %16)
  %18 = icmp ult i32 %17, 12
  br i1 %18, label %19, label %27

19:                                               ; preds = %3
  %20 = load ptr, ptr %6, align 8
  %21 = load ptr, ptr %5, align 8
  %22 = load ptr, ptr %4, align 8
  %23 = load i32, ptr %9, align 4
  %24 = load ptr, ptr %4, align 8
  %25 = call i32 @tvb_reported_length(ptr noundef %24)
  %26 = call ptr (ptr, ptr, ptr, ptr, i32, i32, ptr, ...) @proto_tree_add_expert_format(ptr noundef %20, ptr noundef %21, ptr noundef @ei_uftp_length_invalid, ptr noundef %22, i32 noundef %23, i32 noundef -1, ptr noundef @.str.289, i32 noundef %25)
  store i32 1, ptr %15, align 4
  br label %115

27:                                               ; preds = %3
  %28 = load ptr, ptr %4, align 8
  %29 = call zeroext i16 @tvb_get_ntohs(ptr noundef %28, i32 noundef 2)
  store i16 %29, ptr %12, align 2
  %30 = load ptr, ptr %4, align 8
  %31 = call zeroext i16 @tvb_get_ntohs(ptr noundef %30, i32 noundef 2)
  store i16 %31, ptr %13, align 2
  %32 = load ptr, ptr %4, align 8
  %33 = call zeroext i8 @tvb_get_uint8(ptr noundef %32, i32 noundef 4)
  store i8 %33, ptr %10, align 1
  %34 = load ptr, ptr %4, align 8
  %35 = call zeroext i8 @tvb_get_uint8(ptr noundef %34, i32 noundef 5)
  store i8 %35, ptr %11, align 1
  %36 = load ptr, ptr %4, align 8
  %37 = call i32 @tvb_get_ntohl(ptr noundef %36, i32 noundef 8)
  store i32 %37, ptr %14, align 4
  %38 = load ptr, ptr %5, align 8
  %39 = getelementptr inbounds nuw %struct._packet_info, ptr %38, i32 0, i32 1
  %40 = load ptr, ptr %39, align 8
  %41 = load i16, ptr %12, align 2
  %42 = zext i16 %41 to i32
  %43 = load i8, ptr %10, align 1
  %44 = zext i8 %43 to i32
  %45 = load i16, ptr %13, align 2
  %46 = zext i16 %45 to i32
  %47 = load i8, ptr %11, align 1
  %48 = zext i8 %47 to i32
  call void (ptr, i32, ptr, ...) @col_append_fstr(ptr noundef %40, i32 noundef 25, ptr noundef @.str.296, i32 noundef %42, i32 noundef %44, i32 noundef %46, i32 noundef %48)
  %49 = load ptr, ptr %6, align 8
  %50 = load i32, ptr @hf_uftp_status, align 4
  %51 = load ptr, ptr %4, align 8
  %52 = load i32, ptr %9, align 4
  %53 = call ptr @proto_tree_add_item(ptr noundef %49, i32 noundef %50, ptr noundef %51, i32 noundef %52, i32 noundef -1, i32 noundef 0)
  store ptr %53, ptr %7, align 8
  %54 = load ptr, ptr %7, align 8
  %55 = load i32, ptr @ett_uftp_status, align 4
  %56 = call ptr @proto_item_add_subtree(ptr noundef %54, i32 noundef %55)
  store ptr %56, ptr %8, align 8
  %57 = load ptr, ptr %8, align 8
  %58 = load i32, ptr @hf_uftp_status_func, align 4
  %59 = load ptr, ptr %4, align 8
  %60 = load i32, ptr %9, align 4
  %61 = call ptr @proto_tree_add_item(ptr noundef %57, i32 noundef %58, ptr noundef %59, i32 noundef %60, i32 noundef 1, i32 noundef 0)
  %62 = load i32, ptr %9, align 4
  %63 = add i32 %62, 1
  store i32 %63, ptr %9, align 4
  %64 = load ptr, ptr %8, align 8
  %65 = load i32, ptr @hf_uftp_status_reserved, align 4
  %66 = load ptr, ptr %4, align 8
  %67 = load i32, ptr %9, align 4
  %68 = call ptr @proto_tree_add_item(ptr noundef %64, i32 noundef %65, ptr noundef %66, i32 noundef %67, i32 noundef 1, i32 noundef 0)
  %69 = load i32, ptr %9, align 4
  %70 = add i32 %69, 1
  store i32 %70, ptr %9, align 4
  %71 = load ptr, ptr %8, align 8
  %72 = load i32, ptr @hf_uftp_status_file_id, align 4
  %73 = load ptr, ptr %4, align 8
  %74 = load i32, ptr %9, align 4
  %75 = call ptr @proto_tree_add_item(ptr noundef %71, i32 noundef %72, ptr noundef %73, i32 noundef %74, i32 noundef 2, i32 noundef 0)
  %76 = load i32, ptr %9, align 4
  %77 = add i32 %76, 2
  store i32 %77, ptr %9, align 4
  %78 = load ptr, ptr %8, align 8
  %79 = load i32, ptr @hf_uftp_status_pass, align 4
  %80 = load ptr, ptr %4, align 8
  %81 = load i32, ptr %9, align 4
  %82 = call ptr @proto_tree_add_item(ptr noundef %78, i32 noundef %79, ptr noundef %80, i32 noundef %81, i32 noundef 1, i32 noundef 0)
  %83 = load i32, ptr %9, align 4
  %84 = add i32 %83, 1
  store i32 %84, ptr %9, align 4
  %85 = load ptr, ptr %8, align 8
  %86 = load i32, ptr @hf_uftp_status_seq, align 4
  %87 = load ptr, ptr %4, align 8
  %88 = load i32, ptr %9, align 4
  %89 = call ptr @proto_tree_add_item(ptr noundef %85, i32 noundef %86, ptr noundef %87, i32 noundef %88, i32 noundef 1, i32 noundef 0)
  %90 = load i32, ptr %9, align 4
  %91 = add i32 %90, 1
  store i32 %91, ptr %9, align 4
  %92 = load ptr, ptr %8, align 8
  %93 = load i32, ptr @hf_uftp_status_section, align 4
  %94 = load ptr, ptr %4, align 8
  %95 = load i32, ptr %9, align 4
  %96 = call ptr @proto_tree_add_item(ptr noundef %92, i32 noundef %93, ptr noundef %94, i32 noundef %95, i32 noundef 2, i32 noundef 0)
  %97 = load i32, ptr %9, align 4
  %98 = add i32 %97, 2
  store i32 %98, ptr %9, align 4
  %99 = load ptr, ptr %8, align 8
  %100 = load i32, ptr @hf_uftp_status_nak_count, align 4
  %101 = load ptr, ptr %4, align 8
  %102 = load i32, ptr %9, align 4
  %103 = call ptr @proto_tree_add_item(ptr noundef %99, i32 noundef %100, ptr noundef %101, i32 noundef %102, i32 noundef 4, i32 noundef 0)
  %104 = load i32, ptr %9, align 4
  %105 = add i32 %104, 4
  store i32 %105, ptr %9, align 4
  %106 = load i32, ptr %14, align 4
  %107 = icmp ugt i32 %106, 0
  br i1 %107, label %108, label %114

108:                                              ; preds = %27
  %109 = load ptr, ptr %8, align 8
  %110 = load i32, ptr @hf_uftp_status_naks, align 4
  %111 = load ptr, ptr %4, align 8
  %112 = load i32, ptr %9, align 4
  %113 = call ptr @proto_tree_add_item(ptr noundef %109, i32 noundef %110, ptr noundef %111, i32 noundef %112, i32 noundef -1, i32 noundef 0)
  br label %114

114:                                              ; preds = %108, %27
  store i32 0, ptr %15, align 4
  br label %115

115:                                              ; preds = %114, %19
  call void @llvm.lifetime.end.p0(i64 4, ptr %14) #3
  call void @llvm.lifetime.end.p0(i64 2, ptr %13) #3
  call void @llvm.lifetime.end.p0(i64 2, ptr %12) #3
  call void @llvm.lifetime.end.p0(i64 1, ptr %11) #3
  call void @llvm.lifetime.end.p0(i64 1, ptr %10) #3
  call void @llvm.lifetime.end.p0(i64 4, ptr %9) #3
  call void @llvm.lifetime.end.p0(i64 8, ptr %8) #3
  call void @llvm.lifetime.end.p0(i64 8, ptr %7) #3
  %116 = load i32, ptr %15, align 4
  switch i32 %116, label %118 [
    i32 0, label %117
    i32 1, label %117
  ]

117:                                              ; preds = %115, %115
  ret void

118:                                              ; preds = %115
  unreachable
}