; Function Attrs: null_pointer_is_valid sspstrong uwtable
define internal fastcc void @dissect_uftp_status(ptr noundef %0, ptr noundef %1, ptr noundef %2) unnamed_addr #0 {
  %4 = tail call i32 @tvb_reported_length(ptr noundef %0)
  %5 = icmp ult i32 %4, 12
  br i1 %5, label %6, label %9

6:                                                ; preds = %3
  %7 = tail call i32 @tvb_reported_length(ptr noundef %0)
  %8 = tail call ptr (ptr, ptr, ptr, ptr, i32, i32, ptr, ...) @proto_tree_add_expert_format(ptr noundef %2, ptr noundef %1, ptr noundef nonnull @ei_uftp_length_invalid, ptr noundef %0, i32 noundef 0, i32 noundef -1, ptr noundef nonnull @.str.289, i32 noundef %7)
  br label %42

9:                                                ; preds = %3
  %10 = tail call zeroext i16 @tvb_get_ntohs(ptr noundef %0, i32 noundef 2)
  %11 = tail call zeroext i16 @tvb_get_ntohs(ptr noundef %0, i32 noundef 2)
  %12 = tail call zeroext i8 @tvb_get_uint8(ptr noundef %0, i32 noundef 4)
  %13 = tail call zeroext i8 @tvb_get_uint8(ptr noundef %0, i32 noundef 5)
  %14 = tail call i32 @tvb_get_ntohl(ptr noundef %0, i32 noundef 8)
  %15 = getelementptr inbounds nuw i8, ptr %1, i64 8
  %16 = load ptr, ptr %15, align 8
  %17 = zext i16 %10 to i32
  %18 = zext i8 %12 to i32
  %19 = zext i16 %11 to i32
  %20 = zext i8 %13 to i32
  tail call void (ptr, i32, ptr, ...) @col_append_fstr(ptr noundef %16, i32 noundef 25, ptr noundef nonnull @.str.296, i32 noundef %17, i32 noundef %18, i32 noundef %19, i32 noundef %20)
  %21 = load i32, ptr @hf_uftp_status, align 4
  %22 = tail call ptr @proto_tree_add_item(ptr noundef %2, i32 noundef %21, ptr noundef %0, i32 noundef 0, i32 noundef -1, i32 noundef 0)
  %23 = load i32, ptr @ett_uftp_status, align 4
  %24 = tail call ptr @proto_item_add_subtree(ptr noundef %22, i32 noundef %23)
  %25 = load i32, ptr @hf_uftp_status_func, align 4
  %26 = tail call ptr @proto_tree_add_item(ptr noundef %24, i32 noundef %25, ptr noundef %0, i32 noundef 0, i32 noundef 1, i32 noundef 0)
  %27 = load i32, ptr @hf_uftp_status_reserved, align 4
  %28 = tail call ptr @proto_tree_add_item(ptr noundef %24, i32 noundef %27, ptr noundef %0, i32 noundef 1, i32 noundef 1, i32 noundef 0)
  %29 = load i32, ptr @hf_uftp_status_file_id, align 4
  %30 = tail call ptr @proto_tree_add_item(ptr noundef %24, i32 noundef %29, ptr noundef %0, i32 noundef 2, i32 noundef 2, i32 noundef 0)
  %31 = load i32, ptr @hf_uftp_status_pass, align 4
  %32 = tail call ptr @proto_tree_add_item(ptr noundef %24, i32 noundef %31, ptr noundef %0, i32 noundef 4, i32 noundef 1, i32 noundef 0)
  %33 = load i32, ptr @hf_uftp_status_seq, align 4
  %34 = tail call ptr @proto_tree_add_item(ptr noundef %24, i32 noundef %33, ptr noundef %0, i32 noundef 5, i32 noundef 1, i32 noundef 0)
  %35 = load i32, ptr @hf_uftp_status_section, align 4
  %36 = tail call ptr @proto_tree_add_item(ptr noundef %24, i32 noundef %35, ptr noundef %0, i32 noundef 6, i32 noundef 2, i32 noundef 0)
  %37 = load i32, ptr @hf_uftp_status_nak_count, align 4
  %38 = tail call ptr @proto_tree_add_item(ptr noundef %24, i32 noundef %37, ptr noundef %0, i32 noundef 8, i32 noundef 4, i32 noundef 0)
  %.not = icmp eq i32 %14, 0
  br i1 %.not, label %42, label %39

39:                                               ; preds = %9
  %40 = load i32, ptr @hf_uftp_status_naks, align 4
  %41 = tail call ptr @proto_tree_add_item(ptr noundef %24, i32 noundef %40, ptr noundef %0, i32 noundef 12, i32 noundef -1, i32 noundef 0)
  br label %42

42:                                               ; preds = %9, %39, %6
  ret void
}